target datalayout = "e-m:e-p270:32:32-p271:32:32-p272:64:64-i64:64-i128:128-f80:128-n8:16:32:64-S128"
target triple = "x86_64-pc-linux-gnu"

%struct.redisServer = type { i32, i64, ptr, ptr, ptr, i32, i32, i32, i32, i32, ptr, ptr, ptr, ptr, ptr, i32, i32, i32, i32, i64, i32, i32, i32, i32, ptr, i32, i32, [41 x i8], i32, i64, i32, i32, i32, ptr, ptr, i32, i32, i64, ptr, ptr, ptr, ptr, [2 x i32], i32, i32, i32, i32, i32, i32, [16 x ptr], i32, ptr, ptr, i32, [8 x %struct.connListener], i32, %struct.connListener, ptr, ptr, ptr, ptr, ptr, ptr, ptr, ptr, ptr, ptr, i32, ptr, i32, ptr, [3 x %struct.pause_event], [256 x i8], ptr, i64, i32, i32, [128 x i32], i32, i32, i64, i32, i32, i32, i32, i32, i64, i64, i64, i64, i64, i64, i64, i64, i64, i64, double, i64, i64, i64, i64, i64, i64, i64, i64, i64, i64, i64, i64, i64, i64, i64, i64, i64, i64, i64, i64, i64, double, i64, i64, i64, i64, i64, ptr, i64, i64, i64, %struct.malloc_stats, i64, i64, i64, i64, i64, i64, i64, i64, i64, i64, i64, i64, double, [4 x i64], i64, i64, i64, i64, [128 x i64], [128 x i64], i64, i64, [7 x %struct.anon], i64, i64, i64, i64, i64, i64, [4 x %struct.durationStats], i32, i32, i32, i32, i32, i32, i32, i32, i32, i32, i32, i32, i64, i32, i32, i32, i32, i64, i64, i32, i32, i32, i32, i32, ptr, [3 x %struct.clientBufferLimitsConfig], i32, i32, i32, ptr, i32, i32, i32, i32, i32, i32, ptr, ptr, i32, i32, i64, i64, i64, i64, i64, i32, i32, ptr, i32, i32, i64, i64, i64, i64, i64, i32, i32, i64, i32, i32, i32, i32, i32, i32, i32, i32, ptr, i32, i64, i64, i64, i64, i32, ptr, i32, ptr, i32, i32, i32, i64, i64, i64, i64, i32, i32, i32, i32, i32, i32, ptr, i32, i32, ptr, i32, i32, i32, [2 x i32], i32, %struct.redisOpArray, i32, ptr, i32, ptr, i32, i32, i32, i32, i32, i32, i32, [41 x i8], [41 x i8], i64, i64, i64, i64, i32, i32, ptr, i64, i64, %struct.replDataBuf, i64, i64, i32, i32, i32, i32, i32, i32, i32, i32, i32, i64, ptr, i64, ptr, ptr, ptr, i32, i32, ptr, ptr, i32, i32, i32, i64, i64, i64, i64, ptr, ptr, i32, ptr, i64, i32, i32, i32, i64, i32, i32, i32, i32, ptr, i32, i32, [41 x i8], i64, i32, ptr, i32, i32, i64, i64, i32, i32, i32, i32, i32, i64, [3 x i32], i32, i32, i32, [10 x i32], ptr, ptr, i32, i64, ptr, ptr, i32, i32, i32, i32, i64, i64, i64, i64, i64, i64, i64, i64, i64, i64, i32, i32, i64, i64, i32, i64, i64, i64, i64, i64, ptr, ptr, i32, ptr, i32, i32, i32, i32, i64, i64, ptr, ptr, i32, i32, i32, i32, i32, ptr, ptr, ptr, i32, i32, i32, i32, i32, i32, i32, i64, i32, i32, i64, i32, i32, i32, i32, i32, i32, i32, i64, ptr, ptr, i64, ptr, i32, %struct.aclInfo, i32, i64, i32, i32, i32, %struct.redisTLSContextConfig, ptr, ptr, ptr, ptr, ptr, i64, i32, ptr, i32, i32, i32, i64, i32, ptr }
%struct.connListener = type { [16 x i32], i32, ptr, i32, i32, ptr, ptr }
%struct.pause_event = type { i32, i64 }
%struct.malloc_stats = type { i64, i64, i64, i64, i64, i64, i64, i64, i64, i64, i64 }
%struct.anon = type { i64, i64, [16 x i64], i32 }
%struct.durationStats = type { i64, i64, i64 }
%struct.clientBufferLimitsConfig = type { i64, i64, i64 }
%struct.redisOpArray = type { ptr, i32, i32 }
%struct.replDataBuf = type { ptr, i64, i64, i64, i64 }
%struct.aclInfo = type { i64, i64, i64, i64 }
%struct.redisTLSContextConfig = type { ptr, ptr, ptr, ptr, ptr, ptr, ptr, ptr, ptr, ptr, ptr, ptr, i32, i32, i32, i32 }
%struct.redisObject = type { i32, i32, ptr }
%struct.dict = type { ptr, [2 x ptr], [2 x i64], i64, i16, [2 x i8], i16, [0 x ptr] }
%struct.zskiplist = type { ptr, ptr, i64, i32 }
%struct.zset = type { ptr, ptr }
%struct.redisDb = type { ptr, ptr, ptr, ptr, ptr, ptr, ptr, i32, i64, i64, ptr }

@server = external global %struct.redisServer, align 8
@.str = private unnamed_addr constant [9 x i8] c"defrag.c\00", align 1
@.str.9 = private unnamed_addr constant [62 x i8] c"ob->type == OBJ_ZSET && ob->encoding == OBJ_ENCODING_SKIPLIST\00", align 1

; Function Attrs: nounwind uwtable
define dso_local void @defragLater(ptr noundef %0, ptr noundef %1) #0 {
  %3 = alloca ptr, align 8
  %4 = alloca ptr, align 8
  %5 = alloca ptr, align 8
  store ptr %0, ptr %3, align 8, !tbaa !108
  store ptr %1, ptr %4, align 8, !tbaa !75
  call void @llvm.lifetime.start.p0(i64 8, ptr %5) #10
  %6 = load ptr, ptr %4, align 8, !tbaa !75
  %7 = call ptr @dictGetKey(ptr noundef %6)
  %8 = call ptr @sdsdup(ptr noundef %7)
  store ptr %8, ptr %5, align 8, !tbaa !41
  %9 = load ptr, ptr %3, align 8, !tbaa !108
  %10 = getelementptr inbounds nuw %struct.redisDb, ptr %9, i32 0, i32 10
  %11 = load ptr, ptr %10, align 8, !tbaa !109
  %12 = load ptr, ptr %5, align 8, !tbaa !41
  %13 = call ptr @listAddNodeTail(ptr noundef %11, ptr noundef %12)
  call void @llvm.lifetime.end.p0(i64 8, ptr %5) #10
  ret void
}

; Function Attrs: nounwind uwtable
define dso_local ptr @activeDefragAlloc(ptr noundef %0) #0 {
  %2 = alloca ptr, align 8
  %3 = alloca ptr, align 8
  %4 = alloca i64, align 8
  %5 = alloca ptr, align 8
  %6 = alloca i32, align 4
  store ptr %0, ptr %3, align 8, !tbaa !5
  call void @llvm.lifetime.start.p0(i64 8, ptr %4) #10
  call void @llvm.lifetime.start.p0(i64 8, ptr %5) #10
  %7 = load ptr, ptr %3, align 8, !tbaa !5
  %8 = call i32 @je_get_defrag_hint(ptr noundef %7)
  %9 = icmp ne i32 %8, 0
  br i1 %9, label %13, label %10

10:                                               ; preds = %1
  %11 = load i64, ptr getelementptr inbounds nuw (%struct.redisServer, ptr @server, i32 0, i32 107), align 8, !tbaa !9
  %12 = add nsw i64 %11, 1
  store i64 %12, ptr getelementptr inbounds nuw (%struct.redisServer, ptr @server, i32 0, i32 107), align 8, !tbaa !9
  store ptr null, ptr %2, align 8
  store i32 1, ptr %6, align 4
  br label %25

13:                                               ; preds = %1
  %14 = load ptr, ptr %3, align 8, !tbaa !5
  %15 = call i64 @je_malloc_usable_size(ptr noundef %14) #10
  store i64 %15, ptr %4, align 8, !tbaa !39
  %16 = load i64, ptr %4, align 8, !tbaa !39
  %17 = call noalias ptr @zmalloc_no_tcache(i64 noundef %16)
  store ptr %17, ptr %5, align 8, !tbaa !5
  %18 = load ptr, ptr %5, align 8, !tbaa !5
  %19 = load ptr, ptr %3, align 8, !tbaa !5
  %20 = load i64, ptr %4, align 8, !tbaa !39
  call void @llvm.memcpy.p0.p0.i64(ptr align 1 %18, ptr align 1 %19, i64 %20, i1 false)
  %21 = load ptr, ptr %3, align 8, !tbaa !5
  call void @zfree_no_tcache(ptr noundef %21)
  %22 = load i64, ptr getelementptr inbounds nuw (%struct.redisServer, ptr @server, i32 0, i32 106), align 8, !tbaa !40
  %23 = add nsw i64 %22, 1
  store i64 %23, ptr getelementptr inbounds nuw (%struct.redisServer, ptr @server, i32 0, i32 106), align 8, !tbaa !40
  %24 = load ptr, ptr %5, align 8, !tbaa !5
  store ptr %24, ptr %2, align 8
  store i32 1, ptr %6, align 4
  br label %25

25:                                               ; preds = %13, %10
  call void @llvm.lifetime.end.p0(i64 8, ptr %5) #10
  call void @llvm.lifetime.end.p0(i64 8, ptr %4) #10
  %26 = load ptr, ptr %2, align 8
  ret ptr %26
}

; Function Attrs: nounwind uwtable
define dso_local void @defragZsetSkiplist(ptr noundef %0, ptr noundef %1) #0 {
  %3 = alloca ptr, align 8
  %4 = alloca ptr, align 8
  %5 = alloca ptr, align 8
  %6 = alloca ptr, align 8
  %7 = alloca ptr, align 8
  %8 = alloca ptr, align 8
  %9 = alloca ptr, align 8
  %10 = alloca ptr, align 8
  %11 = alloca ptr, align 8
  %12 = alloca ptr, align 8
  store ptr %0, ptr %3, align 8, !tbaa !108
  store ptr %1, ptr %4, align 8, !tbaa !75
  call void @llvm.lifetime.start.p0(i64 8, ptr %5) #10
  %13 = load ptr, ptr %4, align 8, !tbaa !75
  %14 = call ptr @dictGetVal(ptr noundef %13)
  store ptr %14, ptr %5, align 8, !tbaa !42
  call void @llvm.lifetime.start.p0(i64 8, ptr %6) #10
  %15 = load ptr, ptr %5, align 8, !tbaa !42
  %16 = getelementptr inbounds nuw %struct.redisObject, ptr %15, i32 0, i32 2
  %17 = load ptr, ptr %16, align 8, !tbaa !47
  store ptr %17, ptr %6, align 8, !tbaa !73
  call void @llvm.lifetime.start.p0(i64 8, ptr %7) #10
  call void @llvm.lifetime.start.p0(i64 8, ptr %8) #10
  call void @llvm.lifetime.start.p0(i64 8, ptr %9) #10
  call void @llvm.lifetime.start.p0(i64 8, ptr %10) #10
  call void @llvm.lifetime.start.p0(i64 8, ptr %11) #10
  %18 = load ptr, ptr %5, align 8, !tbaa !42
  %19 = load i32, ptr %18, align 8
  %20 = and i32 %19, 15
  %21 = icmp eq i32 %20, 3
  br i1 %21, label %22, label %28

22:                                               ; preds = %2
  %23 = load ptr, ptr %5, align 8, !tbaa !42
  %24 = load i32, ptr %23, align 8
  %25 = lshr i32 %24, 4
  %26 = and i32 %25, 15
  %27 = icmp eq i32 %26, 7
  br label %28

28:                                               ; preds = %22, %2
  %29 = phi i1 [ false, %2 ], [ %27, %22 ]
  %30 = xor i1 %29, true
  %31 = xor i1 %30, true
  %32 = zext i1 %31 to i32
  %33 = sext i32 %32 to i64
  %34 = call i64 @llvm.expect.i64(i64 %33, i64 1)
  %35 = icmp ne i64 %34, 0
  br i1 %35, label %36, label %37

36:                                               ; preds = %28
  br label %39

37:                                               ; preds = %28
  call void @_serverAssert(ptr noundef @.str.9, ptr noundef @.str, i32 noundef 518)
  call void @abort() #11
  unreachable

38:                                               ; No predecessors!
  br label %39

39:                                               ; preds = %38, %36
  %40 = load ptr, ptr %6, align 8, !tbaa !73
  %41 = call ptr @activeDefragAlloc(ptr noundef %40)
  store ptr %41, ptr %7, align 8, !tbaa !73
  %42 = icmp ne ptr %41, null
  br i1 %42, label %43, label %47

43:                                               ; preds = %39
  %44 = load ptr, ptr %7, align 8, !tbaa !73
  store ptr %44, ptr %6, align 8, !tbaa !73
  %45 = load ptr, ptr %5, align 8, !tbaa !42
  %46 = getelementptr inbounds nuw %struct.redisObject, ptr %45, i32 0, i32 2
  store ptr %44, ptr %46, align 8, !tbaa !47
  br label %47

47:                                               ; preds = %43, %39
  %48 = load ptr, ptr %6, align 8, !tbaa !73
  %49 = getelementptr inbounds nuw %struct.zset, ptr %48, i32 0, i32 1
  %50 = load ptr, ptr %49, align 8, !tbaa !79
  %51 = call ptr @activeDefragAlloc(ptr noundef %50)
  store ptr %51, ptr %8, align 8, !tbaa !56
  %52 = icmp ne ptr %51, null
  br i1 %52, label %53, label %57

53:                                               ; preds = %47
  %54 = load ptr, ptr %8, align 8, !tbaa !56
  %55 = load ptr, ptr %6, align 8, !tbaa !73
  %56 = getelementptr inbounds nuw %struct.zset, ptr %55, i32 0, i32 1
  store ptr %54, ptr %56, align 8, !tbaa !79
  br label %57

57:                                               ; preds = %53, %47
  %58 = load ptr, ptr %6, align 8, !tbaa !73
  %59 = getelementptr inbounds nuw %struct.zset, ptr %58, i32 0, i32 1
  %60 = load ptr, ptr %59, align 8, !tbaa !79
  %61 = getelementptr inbounds nuw %struct.zskiplist, ptr %60, i32 0, i32 0
  %62 = load ptr, ptr %61, align 8, !tbaa !68
  %63 = call ptr @activeDefragAlloc(ptr noundef %62)
  store ptr %63, ptr %11, align 8, !tbaa !58
  %64 = icmp ne ptr %63, null
  br i1 %64, label %65, label %71

65:                                               ; preds = %57
  %66 = load ptr, ptr %11, align 8, !tbaa !58
  %67 = load ptr, ptr %6, align 8, !tbaa !73
  %68 = getelementptr inbounds nuw %struct.zset, ptr %67, i32 0, i32 1
  %69 = load ptr, ptr %68, align 8, !tbaa !79
  %70 = getelementptr inbounds nuw %struct.zskiplist, ptr %69, i32 0, i32 0
  store ptr %66, ptr %70, align 8, !tbaa !68
  br label %71

71:                                               ; preds = %65, %57
  %72 = load ptr, ptr %6, align 8, !tbaa !73
  %73 = getelementptr inbounds nuw %struct.zset, ptr %72, i32 0, i32 0
  %74 = load ptr, ptr %73, align 8, !tbaa !77
  %75 = getelementptr inbounds nuw %struct.dict, ptr %74, i32 0, i32 2
  %76 = getelementptr inbounds [2 x i64], ptr %75, i64 0, i64 0
  %77 = load i64, ptr %76, align 8, !tbaa !39
  %78 = load ptr, ptr %6, align 8, !tbaa !73
  %79 = getelementptr inbounds nuw %struct.zset, ptr %78, i32 0, i32 0
  %80 = load ptr, ptr %79, align 8, !tbaa !77
  %81 = getelementptr inbounds nuw %struct.dict, ptr %80, i32 0, i32 2
  %82 = getelementptr inbounds [2 x i64], ptr %81, i64 0, i64 1
  %83 = load i64, ptr %82, align 8, !tbaa !39
  %84 = add i64 %77, %83
  %85 = load i64, ptr getelementptr inbounds nuw (%struct.redisServer, ptr @server, i32 0, i32 176), align 8, !tbaa !118
  %86 = icmp ugt i64 %84, %85
  br i1 %86, label %87, label %90

87:                                               ; preds = %71
  %88 = load ptr, ptr %3, align 8, !tbaa !108
  %89 = load ptr, ptr %4, align 8, !tbaa !75
  call void @defragLater(ptr noundef %88, ptr noundef %89)
  br label %104

90:                                               ; preds = %71
  call void @llvm.lifetime.start.p0(i64 8, ptr %12) #10
  %91 = load ptr, ptr %6, align 8, !tbaa !73
  %92 = getelementptr inbounds nuw %struct.zset, ptr %91, i32 0, i32 0
  %93 = load ptr, ptr %92, align 8, !tbaa !77
  %94 = call ptr @dictGetIterator(ptr noundef %93)
  store ptr %94, ptr %12, align 8, !tbaa !119
  br label %95

95:                                               ; preds = %99, %90
  %96 = load ptr, ptr %12, align 8, !tbaa !119
  %97 = call ptr @dictNext(ptr noundef %96)
  store ptr %97, ptr %10, align 8, !tbaa !75
  %98 = icmp ne ptr %97, null
  br i1 %98, label %99, label %102

99:                                               ; preds = %95
  %100 = load ptr, ptr %6, align 8, !tbaa !73
  %101 = load ptr, ptr %10, align 8, !tbaa !75
  call void @activeDefragZsetEntry(ptr noundef %100, ptr noundef %101)
  br label %95, !llvm.loop !121

102:                                              ; preds = %95
  %103 = load ptr, ptr %12, align 8, !tbaa !119
  call void @dictReleaseIterator(ptr noundef %103)
  call void @llvm.lifetime.end.p0(i64 8, ptr %12) #10
  br label %104

104:                                              ; preds = %102, %87
  %105 = load ptr, ptr %6, align 8, !tbaa !73
  %106 = getelementptr inbounds nuw %struct.zset, ptr %105, i32 0, i32 0
  %107 = load ptr, ptr %106, align 8, !tbaa !77
  %108 = call ptr @dictDefragTables(ptr noundef %107)
  store ptr %108, ptr %9, align 8, !tbaa !53
  %109 = icmp ne ptr %108, null
  br i1 %109, label %110, label %114

110:                                              ; preds = %104
  %111 = load ptr, ptr %9, align 8, !tbaa !53
  %112 = load ptr, ptr %6, align 8, !tbaa !73
  %113 = getelementptr inbounds nuw %struct.zset, ptr %112, i32 0, i32 0
  store ptr %111, ptr %113, align 8, !tbaa !77
  br label %114

114:                                              ; preds = %110, %104
  call void @llvm.lifetime.end.p0(i64 8, ptr %11) #10
  call void @llvm.lifetime.end.p0(i64 8, ptr %10) #10
  call void @llvm.lifetime.end.p0(i64 8, ptr %9) #10
  call void @llvm.lifetime.end.p0(i64 8, ptr %8) #10
  call void @llvm.lifetime.end.p0(i64 8, ptr %7) #10
  call void @llvm.lifetime.end.p0(i64 8, ptr %6) #10
  call void @llvm.lifetime.end.p0(i64 8, ptr %5) #10
  ret void
}