; Function Attrs: nounwind uwtable
define dso_local void @defragZsetSkiplist(ptr noundef readonly captures(none) %0, ptr noundef %1) local_unnamed_addr #0 {
  %3 = tail call ptr @dictGetVal(ptr noundef %1) #10
  %4 = getelementptr inbounds nuw i8, ptr %3, i64 8
  %5 = load ptr, ptr %4, align 8, !tbaa !41
  %6 = load i32, ptr %3, align 8
  %7 = and i32 %6, 255
  %8 = icmp eq i32 %7, 115
  br i1 %8, label %10, label %9, !prof !58

9:                                                ; preds = %2
  tail call void @_serverAssert(ptr noundef nonnull @.str.9, ptr noundef nonnull @.str, i32 noundef 518) #10
  tail call void @abort() #11
  unreachable

10:                                               ; preds = %2
  %11 = tail call i32 @je_get_defrag_hint(ptr noundef %5) #10
  %.not.i = icmp eq i32 %11, 0
  br i1 %.not.i, label %activeDefragAlloc.exit.thread, label %activeDefragAlloc.exit

activeDefragAlloc.exit.thread:                    ; preds = %10
  %12 = load i64, ptr getelementptr inbounds nuw (i8, ptr @server, i64 2592), align 8, !tbaa !5
  %13 = add nsw i64 %12, 1
  store i64 %13, ptr getelementptr inbounds nuw (i8, ptr @server, i64 2592), align 8, !tbaa !5
  br label %19

activeDefragAlloc.exit:                           ; preds = %10
  %14 = tail call i64 @je_malloc_usable_size(ptr noundef %5) #10
  %15 = tail call noalias ptr @zmalloc_no_tcache(i64 noundef %14) #10
  tail call void @llvm.memcpy.p0.p0.i64(ptr align 1 %15, ptr align 1 %5, i64 %14, i1 false)
  tail call void @zfree_no_tcache(ptr noundef %5) #10
  %16 = load i64, ptr getelementptr inbounds nuw (i8, ptr @server, i64 2584), align 8, !tbaa !38
  %17 = add nsw i64 %16, 1
  store i64 %17, ptr getelementptr inbounds nuw (i8, ptr @server, i64 2584), align 8, !tbaa !38
  %.not = icmp eq ptr %15, null
  br i1 %.not, label %19, label %18

18:                                               ; preds = %activeDefragAlloc.exit
  store ptr %15, ptr %4, align 8, !tbaa !41
  br label %19

19:                                               ; preds = %activeDefragAlloc.exit.thread, %18, %activeDefragAlloc.exit
  %.0 = phi ptr [ %15, %18 ], [ %5, %activeDefragAlloc.exit ], [ %5, %activeDefragAlloc.exit.thread ]
  %20 = getelementptr inbounds nuw i8, ptr %.0, i64 8
  %21 = load ptr, ptr %20, align 8, !tbaa !67
  %22 = tail call i32 @je_get_defrag_hint(ptr noundef %21) #10
  %.not.i34 = icmp eq i32 %22, 0
  br i1 %.not.i34, label %activeDefragAlloc.exit36.thread, label %activeDefragAlloc.exit36

activeDefragAlloc.exit36.thread:                  ; preds = %19
  %23 = load i64, ptr getelementptr inbounds nuw (i8, ptr @server, i64 2592), align 8, !tbaa !5
  %24 = add nsw i64 %23, 1
  store i64 %24, ptr getelementptr inbounds nuw (i8, ptr @server, i64 2592), align 8, !tbaa !5
  br label %30

activeDefragAlloc.exit36:                         ; preds = %19
  %25 = tail call i64 @je_malloc_usable_size(ptr noundef %21) #10
  %26 = tail call noalias ptr @zmalloc_no_tcache(i64 noundef %25) #10
  tail call void @llvm.memcpy.p0.p0.i64(ptr align 1 %26, ptr align 1 %21, i64 %25, i1 false)
  tail call void @zfree_no_tcache(ptr noundef %21) #10
  %27 = load i64, ptr getelementptr inbounds nuw (i8, ptr @server, i64 2584), align 8, !tbaa !38
  %28 = add nsw i64 %27, 1
  store i64 %28, ptr getelementptr inbounds nuw (i8, ptr @server, i64 2584), align 8, !tbaa !38
  %.not30 = icmp eq ptr %26, null
  br i1 %.not30, label %30, label %29

29:                                               ; preds = %activeDefragAlloc.exit36
  store ptr %26, ptr %20, align 8, !tbaa !67
  br label %30

30:                                               ; preds = %activeDefragAlloc.exit36.thread, %29, %activeDefragAlloc.exit36
  %31 = load ptr, ptr %20, align 8, !tbaa !67
  %32 = load ptr, ptr %31, align 8, !tbaa !56
  %33 = tail call i32 @je_get_defrag_hint(ptr noundef %32) #10
  %.not.i37 = icmp eq i32 %33, 0
  br i1 %.not.i37, label %activeDefragAlloc.exit39.thread, label %activeDefragAlloc.exit39

activeDefragAlloc.exit39.thread:                  ; preds = %30
  %34 = load i64, ptr getelementptr inbounds nuw (i8, ptr @server, i64 2592), align 8, !tbaa !5
  %35 = add nsw i64 %34, 1
  store i64 %35, ptr getelementptr inbounds nuw (i8, ptr @server, i64 2592), align 8, !tbaa !5
  br label %42

activeDefragAlloc.exit39:                         ; preds = %30
  %36 = tail call i64 @je_malloc_usable_size(ptr noundef %32) #10
  %37 = tail call noalias ptr @zmalloc_no_tcache(i64 noundef %36) #10
  tail call void @llvm.memcpy.p0.p0.i64(ptr align 1 %37, ptr align 1 %32, i64 %36, i1 false)
  tail call void @zfree_no_tcache(ptr noundef %32) #10
  %38 = load i64, ptr getelementptr inbounds nuw (i8, ptr @server, i64 2584), align 8, !tbaa !38
  %39 = add nsw i64 %38, 1
  store i64 %39, ptr getelementptr inbounds nuw (i8, ptr @server, i64 2584), align 8, !tbaa !38
  %.not31 = icmp eq ptr %37, null
  br i1 %.not31, label %42, label %40

40:                                               ; preds = %activeDefragAlloc.exit39
  %41 = load ptr, ptr %20, align 8, !tbaa !67
  store ptr %37, ptr %41, align 8, !tbaa !56
  br label %42

42:                                               ; preds = %activeDefragAlloc.exit39.thread, %40, %activeDefragAlloc.exit39
  %43 = load ptr, ptr %.0, align 8, !tbaa !64
  %44 = getelementptr inbounds nuw i8, ptr %43, i64 24
  %45 = load i64, ptr %44, align 8, !tbaa !94
  %46 = getelementptr inbounds nuw i8, ptr %43, i64 32
  %47 = load i64, ptr %46, align 8, !tbaa !94
  %48 = add i64 %47, %45
  %49 = load i64, ptr getelementptr inbounds nuw (i8, ptr @server, i64 6360), align 8, !tbaa !100
  %50 = icmp ugt i64 %48, %49
  br i1 %50, label %51, label %57

51:                                               ; preds = %42
  %52 = tail call ptr @dictGetKey(ptr noundef %1) #10
  %53 = tail call ptr @sdsdup(ptr noundef %52) #10
  %54 = getelementptr inbounds nuw i8, ptr %0, i64 80
  %55 = load ptr, ptr %54, align 8, !tbaa !90
  %56 = tail call ptr @listAddNodeTail(ptr noundef %55, ptr noundef %53) #10
  br label %62

57:                                               ; preds = %42
  %58 = tail call ptr @dictGetIterator(ptr noundef nonnull %43) #10
  %59 = tail call ptr @dictNext(ptr noundef %58) #10
  %.not3246 = icmp eq ptr %59, null
  br i1 %.not3246, label %._crit_edge, label %.lr.ph

.lr.ph:                                           ; preds = %57, %.lr.ph
  %60 = phi ptr [ %61, %.lr.ph ], [ %59, %57 ]
  tail call void @activeDefragZsetEntry(ptr noundef nonnull %.0, ptr noundef nonnull %60)
  %61 = tail call ptr @dictNext(ptr noundef %58) #10
  %.not32 = icmp eq ptr %61, null
  br i1 %.not32, label %._crit_edge, label %.lr.ph, !llvm.loop !101

._crit_edge:                                      ; preds = %.lr.ph, %57
  tail call void @dictReleaseIterator(ptr noundef %58) #10
  br label %62

62:                                               ; preds = %._crit_edge, %51
  %63 = load ptr, ptr %.0, align 8, !tbaa !64
  %64 = tail call ptr @dictDefragTables(ptr noundef %63)
  %.not33 = icmp eq ptr %64, null
  br i1 %.not33, label %66, label %65

65:                                               ; preds = %62
  store ptr %64, ptr %.0, align 8, !tbaa !64
  br label %66

66:                                               ; preds = %65, %62
  ret void
}